; Function Attrs: mustprogress uwtable
define internal noundef zeroext i1 @_ZNK7rocksdb4test12_GLOBAL__N_118SpecialMemTableRep8ContainsEPKc(ptr noundef nonnull readonly align 8 captures(none) dereferenceable(32) %0, ptr noundef %1) unnamed_addr #7 align 2 {
  %3 = getelementptr inbounds nuw i8, ptr %0, i64 16
  %4 = load ptr, ptr %3, align 8, !tbaa !576
  %5 = load ptr, ptr %4, align 8, !tbaa !25
  %6 = getelementptr inbounds nuw i8, ptr %5, i64 72
  %7 = load ptr, ptr %6, align 8
  %8 = tail call noundef zeroext i1 %7(ptr noundef nonnull align 8 dereferenceable(16) %4, ptr noundef %1)
  ret i1 %8
}